target datalayout = "e-m:e-p270:32:32-p271:32:32-p272:64:64-i64:64-i128:128-f80:128-n8:16:32:64-S128"
target triple = "x86_64-pc-linux-gnu"

%struct.ThreadQueue = type { ptr, i32, i32, ptr, ptr, %union.pthread_mutex_t, %union.pthread_cond_t }
%union.pthread_mutex_t = type { %struct.__pthread_mutex_s }
%struct.__pthread_mutex_s = type { i32, i32, i32, i32, i32, i16, i16, %struct.__pthread_internal_list }
%struct.__pthread_internal_list = type { ptr, ptr }
%union.pthread_cond_t = type { %struct.__pthread_cond_s }
%struct.__pthread_cond_s = type { %union.__atomic_wide_counter, %union.__atomic_wide_counter, [2 x i32], [2 x i32], i32, i32, [2 x i32] }
%union.__atomic_wide_counter = type { i64 }

@.str = private unnamed_addr constant [30 x i8] c"Assertion %s failed at %s:%d\0A\00", align 1
@.str.1 = private unnamed_addr constant [28 x i8] c"stream_idx < tq->nb_streams\00", align 1
@.str.2 = private unnamed_addr constant [23 x i8] c"fftools/thread_queue.c\00", align 1

; Function Attrs: nounwind uwtable
define void @tq_receive_finish(ptr noundef %0, i32 noundef %1) #0 {
  %3 = alloca ptr, align 8
  %4 = alloca i32, align 4
  store ptr %0, ptr %3, align 8, !tbaa !10
  store i32 %1, ptr %4, align 4, !tbaa !12
  br label %5

5:                                                ; preds = %2
  %6 = load i32, ptr %4, align 4, !tbaa !12
  %7 = load ptr, ptr %3, align 8, !tbaa !10
  %8 = getelementptr inbounds nuw %struct.ThreadQueue, ptr %7, i32 0, i32 1
  %9 = load i32, ptr %8, align 8, !tbaa !21
  %10 = icmp ult i32 %6, %9
  br i1 %10, label %12, label %11

11:                                               ; preds = %5
  call void (ptr, i32, ptr, ...) @av_log(ptr noundef null, i32 noundef 0, ptr noundef @.str, ptr noundef @.str.1, ptr noundef @.str.2, i32 noundef 240)
  call void @abort() #6
  unreachable

12:                                               ; preds = %5
  br label %13

13:                                               ; preds = %12
  %14 = load ptr, ptr %3, align 8, !tbaa !10
  %15 = getelementptr inbounds nuw %struct.ThreadQueue, ptr %14, i32 0, i32 5
  %16 = call i32 @pthread_mutex_lock(ptr noundef %15) #5
  %17 = load ptr, ptr %3, align 8, !tbaa !10
  %18 = getelementptr inbounds nuw %struct.ThreadQueue, ptr %17, i32 0, i32 0
  %19 = load ptr, ptr %18, align 8, !tbaa !16
  %20 = load i32, ptr %4, align 4, !tbaa !12
  %21 = zext i32 %20 to i64
  %22 = getelementptr inbounds nuw i32, ptr %19, i64 %21
  %23 = load i32, ptr %22, align 4, !tbaa !12
  %24 = or i32 %23, 2
  store i32 %24, ptr %22, align 4, !tbaa !12
  %25 = load ptr, ptr %3, align 8, !tbaa !10
  %26 = getelementptr inbounds nuw %struct.ThreadQueue, ptr %25, i32 0, i32 6
  %27 = call i32 @pthread_cond_broadcast(ptr noundef %26) #5
  %28 = load ptr, ptr %3, align 8, !tbaa !10
  %29 = getelementptr inbounds nuw %struct.ThreadQueue, ptr %28, i32 0, i32 5
  %30 = call i32 @pthread_mutex_unlock(ptr noundef %29) #5
  ret void
}